; Function Attrs: mustprogress uwtable
define hidden void @_ZN4cvc58internal7options14OptionsHandler17decreaseVerbosityERKNSt7__cxx1112basic_stringIcSt11char_traitsIcESaIcEEEb(ptr noundef nonnull readonly align 8 captures(none) dereferenceable(8) %0, ptr noundef nonnull readnone align 8 captures(none) dereferenceable(32) %1, i1 noundef zeroext %2) local_unnamed_addr #5 align 2 {
  %4 = load ptr, ptr %0, align 8, !tbaa !3
  %5 = tail call noundef nonnull align 8 dereferenceable(361) ptr @_ZN4cvc58internal7Options10write_baseEv(ptr noundef nonnull align 8 dereferenceable(408) %4)
  %6 = getelementptr inbounds nuw i8, ptr %5, i64 304
  %7 = load i64, ptr %6, align 8, !tbaa !238
  %8 = add nsw i64 %7, -1
  store i64 %8, ptr %6, align 8, !tbaa !238
  %9 = load ptr, ptr %0, align 8, !tbaa !3
  %10 = getelementptr inbounds nuw i8, ptr %9, i64 224
  %11 = load ptr, ptr %10, align 8, !tbaa !38
  %12 = getelementptr inbounds nuw i8, ptr %11, i64 304
  %13 = load i64, ptr %12, align 8, !tbaa !238
  %14 = tail call noundef zeroext i1 @_ZN4cvc58internal13Configuration14isMuzzledBuildEv()
  br i1 %14, label %15, label %16

15:                                               ; preds = %3
  store ptr @_ZN4cvc58internal7null_osE, ptr @_ZN4cvc58internal12TraceChannelE, align 8, !tbaa !31
  br label %_ZN4cvc58internal7options14OptionsHandler12setVerbosityERKNSt7__cxx1112basic_stringIcSt11char_traitsIcESaIcEEEi.exit

16:                                               ; preds = %3
  %17 = and i64 %13, 2147483648
  %.not = icmp eq i64 %17, 0
  %_ZN4cvc58internal7null_osE._ZSt4cerr.i = select i1 %.not, ptr @_ZSt4cerr, ptr @_ZN4cvc58internal7null_osE
  br label %_ZN4cvc58internal7options14OptionsHandler12setVerbosityERKNSt7__cxx1112basic_stringIcSt11char_traitsIcESaIcEEEi.exit

_ZN4cvc58internal7options14OptionsHandler12setVerbosityERKNSt7__cxx1112basic_stringIcSt11char_traitsIcESaIcEEEi.exit: ; preds = %15, %16
  %_ZN4cvc58internal7null_osE.sink.i = phi ptr [ @_ZN4cvc58internal7null_osE, %15 ], [ %_ZN4cvc58internal7null_osE._ZSt4cerr.i, %16 ]
  store ptr %_ZN4cvc58internal7null_osE.sink.i, ptr getelementptr inbounds nuw (i8, ptr @_ZN4cvc58internal14WarningChannelE, i64 48), align 8, !tbaa !9
  ret void
}